Certificate:
    Data:
        Version: 1 (0x0)
        Serial Number: 6503 (0x1967)
        Signature Algorithm: md5WithRSAEncryption
        Issuer: C=US, ST=California, L=San Jose, O=CISCO Systems, Inc., OU=MWG, CN=CISCO MNET Certificate Authority/Email=support@cisco.com
        Validity
            Not Before: Jul 24 01:58:18 2001 GMT
            Not After : Jul 24 01:58:18 2002 GMT
        Subject: C=US, ST=California, L=San Jose, O=CISCO Systems, Inc., OU=MWG, CN=CISCO MNET CDR USER/Email=support@cisco.com
        Subject Public Key Info:
            Public Key Algorithm: rsaEncryption
            RSA Public Key: (1024 bit)
                Modulus (1024 bit):
                    00:e2:a5:09:d8:49:90:1e:0c:0e:ca:f7:e8:b5:b3:
                    79:c3:d3:33:5d:25:3c:03:c2:9a:6e:4a:09:9c:c1:
                    cc:dc:34:3b:c9:0a:ef:84:45:05:ff:b3:5a:c6:73:
                    33:9a:08:52:c5:7c:68:6e:f1:24:c9:7d:23:ad:9f:
                    a4:57:8b:63:07:21:bd:c9:f6:3f:b9:65:10:3f:8b:
                    64:e7:44:d6:41:1e:c7:67:48:42:07:42:0a:df:a4:
                    79:29:9a:ff:7a:ed:0a:68:e8:3b:eb:f0:e6:a7:bc:
                    15:27:62:20:53:26:5b:0d:d9:21:f7:38:8d:36:7d:
                    5d:28:65:a1:b6:9f:4e:24:b3
                Exponent: 65537 (0x10001)
    Signature Algorithm: md5WithRSAEncryption
        10:19:72:22:6a:94:00:a9:fd:cf:3f:ef:1a:d8:3c:c3:d0:7b:
        c8:04:92:fe:d2:ef:34:f7:ba:f0:84:a2:34:77:89:c3:5e:7b:
        32:be:55:06:06:46:f8:93:72:20:13:d1:b9:4c:da:3b:77:70:
        9c:86:29:2d:d9:df:67:47:21:55:88:b8:08:08:bb:bc:33:ec:
        02:68:f6:5f:d1:e6:1b:2d:0a:bf:a2:c7:a1:f2:b4:cd:16:29:
        4d:55:f0:90:0b:2a:b2:52:1b:9e:6f:46:da:6b:a3:7b:a9:b8:
        2d:ad:00:8f:bc:b1:3a:72:b7:52:92:be:7c:31:5d:87:4d:b8:
        f7:a2
-----BEGIN CERTIFICATE-----
MIICwTCCAioCAhlnMA0GCSqGSIb3DQEBBAUAMIGuMQswCQYDVQQGEwJVUzETMBEG
A1UECBMKQ2FsaWZvcm5pYTERMA8GA1UEBxMIU2FuIEpvc2UxHDAaBgNVBAoTE0NJ
U0NPIFN5c3RlbXMsIEluYy4xDDAKBgNVBAsTA01XRzEpMCcGA1UEAxMgQ0lTQ08g
TU5FVCBDZXJ0aWZpY2F0ZSBBdXRob3JpdHkxIDAeBgkqhkiG9w0BCQEWEXN1cHBv
cnRAY2lzY28uY29tMB4XDTAxMDcyNDAxNTgxOFoXDTAyMDcyNDAxNTgxOFowgaEx
CzAJBgNVBAYTAlVTMRMwEQYDVQQIEwpDYWxpZm9ybmlhMREwDwYDVQQHEwhTYW4g
Sm9zZTEcMBoGA1UEChMTQ0lTQ08gU3lzdGVtcywgSW5jLjEMMAoGA1UECxMDTVdH
MRwwGgYDVQQDExNDSVNDTyBNTkVUIENEUiBVU0VSMSAwHgYJKoZIhvcNAQkBFhFz
dXBwb3J0QGNpc2NvLmNvbTCBnzANBgkqhkiG9w0BAQEFAAOBjQAwgYkCgYEA4qUJ
2EmQHgwOyvfotbN5w9MzXSU8A8KabkoJnMHM3DQ7yQrvhEUF/7NaxnMzmghSxXxo
bvEkyX0jrZ+kV4tjByG9yfY/uWUQP4tk50TWQR7HZ0hCB0IK36R5KZr/eu0KaOg7
6/Dmp7wVJ2IgUyZbDdkh9ziNNn1dKGWhtp9OJLMCAwEAATANBgkqhkiG9w0BAQQF
AAOBgQAQGXIiapQAqf3PP+8a2DzD0HvIBJL+0u8097rwhKI0d4nDXnsyvlUGBkb4
k3IgE9G5TNo7d3Cchikt2d9nRyFViLgICLu8M+wCaPZf0eYbLQq/oseh8rTNFilN
VfCQCyqyUhueb0baa6N7qbgtrQCPvLE6crdSkr58MV2HTbj3og==
-----END CERTIFICATE-----
